#include <math.h>
#include <stdio.h>
#include <stdlib.h>
#include <string.h>
#include <iostream>
using namespace std;

//********************************
//*???????????    **
//*?????? 1300012855 **
//*???2013.10.30  **
//********************************


int main(void)
{
	int n, a[100000]; // n?????????????a?
	int k; // k????????
	cin >> n;
	for(int i = 0; i < n; i++)
		cin >> a[i]; // ????
	cin >> k;
	for(int j = 0; j < n; )
	{
		if(a[j] == k) // ?????k?????
		{
			n--; // ??????????????
			for(int x = j; x < n; x++)
				a[x] = a[x + 1]; // ???????
		}
		else j++; // ?????k???????????????
	}
	for(int y = 0; y < n - 1; y++)
	{
		cout << a[y] << ' '; // ????
	}
	cout << a[n - 1] << endl;
	return 0;
}