; ModuleID = 'source-C-CXX/41/1870.cpp'
source_filename = "source-C-CXX/41/1870.cpp"
target datalayout = "e-m:e-p270:32:32-p271:32:32-p272:64:64-i64:64-f80:128-n8:16:32:64-S128"
target triple = "x86_64-pc-linux-gnu"

%"class.std::ios_base::Init" = type { i8 }
%"class.std::basic_istream" = type { i32 (...)**, i64, %"class.std::basic_ios" }
%"class.std::basic_ios" = type { %"class.std::ios_base", %"class.std::basic_ostream"*, i8, i8, %"class.std::basic_streambuf"*, %"class.std::ctype"*, %"class.std::num_put"*, %"class.std::num_get"* }
%"class.std::ios_base" = type { i32 (...)**, i64, i64, i32, i32, i32, %"struct.std::ios_base::_Callback_list"*, %"struct.std::ios_base::_Words", [8 x %"struct.std::ios_base::_Words"], i32, %"struct.std::ios_base::_Words"*, %"class.std::locale" }
%"struct.std::ios_base::_Callback_list" = type { %"struct.std::ios_base::_Callback_list"*, void (i32, %"class.std::ios_base"*, i32)*, i32, i32 }
%"struct.std::ios_base::_Words" = type { i8*, i64 }
%"class.std::locale" = type { %"class.std::locale::_Impl"* }
%"class.std::locale::_Impl" = type { i32, %"class.std::locale::facet"**, i64, %"class.std::locale::facet"**, i8** }
%"class.std::locale::facet" = type <{ i32 (...)**, i32, [4 x i8] }>
%"class.std::basic_ostream" = type { i32 (...)**, %"class.std::basic_ios" }
%"class.std::basic_streambuf" = type { i32 (...)**, i8*, i8*, i8*, i8*, i8*, i8*, %"class.std::locale" }
%"class.std::ctype" = type <{ %"class.std::locale::facet.base", [4 x i8], %struct.__locale_struct*, i8, [7 x i8], i32*, i32*, i16*, i8, [256 x i8], [256 x i8], i8, [6 x i8] }>
%"class.std::locale::facet.base" = type <{ i32 (...)**, i32 }>
%struct.__locale_struct = type { [13 x %struct.__locale_data*], i16*, i32*, i32*, [13 x i8*] }
%struct.__locale_data = type opaque
%"class.std::num_put" = type { %"class.std::locale::facet.base", [4 x i8] }
%"class.std::num_get" = type { %"class.std::locale::facet.base", [4 x i8] }

@_ZStL8__ioinit = internal global %"class.std::ios_base::Init" zeroinitializer, align 1
@__dso_handle = external hidden global i8
@_ZSt3cin = external global %"class.std::basic_istream", align 8
@_ZSt4cout = external global %"class.std::basic_ostream", align 8
@llvm.global_ctors = appending global [1 x { i32, void ()*, i8* }] [{ i32, void ()*, i8* } { i32 65535, void ()* @_GLOBAL__sub_I_1870.cpp, i8* null }]

declare void @_ZNSt8ios_base4InitC1Ev(%"class.std::ios_base::Init"* nonnull align 1 dereferenceable(1)) unnamed_addr #0

; Function Attrs: nounwind
declare void @_ZNSt8ios_base4InitD1Ev(%"class.std::ios_base::Init"* nonnull align 1 dereferenceable(1)) unnamed_addr #1

; Function Attrs: nofree nounwind
declare i32 @__cxa_atexit(void (i8*)*, i8*, i8*) local_unnamed_addr #2

; Function Attrs: mustprogress norecurse sspstrong uwtable
define dso_local i32 @main() local_unnamed_addr #3 {
  %1 = alloca i8, align 1
  %2 = alloca i32, align 4
  %3 = alloca [100000 x i32], align 16
  %4 = alloca i32, align 4
  %5 = bitcast i32* %2 to i8*
  call void @llvm.lifetime.start.p0i8(i64 4, i8* nonnull %5) #7
  %6 = bitcast [100000 x i32]* %3 to i8*
  call void @llvm.lifetime.start.p0i8(i64 400000, i8* nonnull %6) #7
  %7 = bitcast i32* %4 to i8*
  call void @llvm.lifetime.start.p0i8(i64 4, i8* nonnull %7) #7
  %8 = call nonnull align 8 dereferenceable(16) %"class.std::basic_istream"* @_ZNSirsERi(%"class.std::basic_istream"* nonnull align 8 dereferenceable(16) @_ZSt3cin, i32* nonnull align 4 dereferenceable(4) %2)
  %9 = load i32, i32* %2, align 4, !tbaa !5
  %10 = icmp sgt i32 %9, 0
  br i1 %10, label %16, label %11

11:                                               ; preds = %16, %0
  %12 = call nonnull align 8 dereferenceable(16) %"class.std::basic_istream"* @_ZNSirsERi(%"class.std::basic_istream"* nonnull align 8 dereferenceable(16) @_ZSt3cin, i32* nonnull align 4 dereferenceable(4) %4)
  %13 = load i32, i32* %4, align 4
  %14 = load i32, i32* %2, align 4, !tbaa !5
  %15 = icmp sgt i32 %14, 0
  br i1 %15, label %30, label %26

16:                                               ; preds = %0, %16
  %17 = phi i64 [ %20, %16 ], [ 0, %0 ]
  %18 = getelementptr inbounds [100000 x i32], [100000 x i32]* %3, i64 0, i64 %17
  %19 = call nonnull align 8 dereferenceable(16) %"class.std::basic_istream"* @_ZNSirsERi(%"class.std::basic_istream"* nonnull align 8 dereferenceable(16) @_ZSt3cin, i32* nonnull align 4 dereferenceable(4) %18)
  %20 = add nuw nsw i64 %17, 1
  %21 = load i32, i32* %2, align 4, !tbaa !5
  %22 = sext i32 %21 to i64
  %23 = icmp slt i64 %20, %22
  br i1 %23, label %16, label %11, !llvm.loop !9

24:                                               ; preds = %114
  %25 = icmp sgt i32 %115, 1
  br i1 %25, label %152, label %26

26:                                               ; preds = %11, %24
  %27 = phi i32 [ %115, %24 ], [ %14, %11 ]
  %28 = add nsw i32 %27, -1
  %29 = sext i32 %28 to i64
  br label %118

30:                                               ; preds = %11, %114
  %31 = phi i32 [ %115, %114 ], [ %14, %11 ]
  %32 = phi i32 [ %116, %114 ], [ 0, %11 ]
  %33 = sext i32 %32 to i64
  %34 = getelementptr inbounds [100000 x i32], [100000 x i32]* %3, i64 0, i64 %33
  %35 = load i32, i32* %34, align 4, !tbaa !5
  %36 = icmp eq i32 %35, %13
  br i1 %36, label %37, label %112

37:                                               ; preds = %30
  %38 = add nsw i32 %31, -1
  store i32 %38, i32* %2, align 4, !tbaa !5
  %39 = icmp slt i32 %32, %38
  br i1 %39, label %40, label %114

40:                                               ; preds = %37
  %41 = sext i32 %38 to i64
  %42 = sub nsw i64 %41, %33
  %43 = icmp ult i64 %42, 8
  br i1 %43, label %103, label %44

44:                                               ; preds = %40
  %45 = and i64 %42, -8
  %46 = add nsw i64 %45, %33
  %47 = add nsw i64 %45, -8
  %48 = lshr exact i64 %47, 3
  %49 = add nuw nsw i64 %48, 1
  %50 = and i64 %49, 1
  %51 = icmp eq i64 %47, 0
  br i1 %51, label %85, label %52

52:                                               ; preds = %44
  %53 = and i64 %49, 4611686018427387902
  br label %54

54:                                               ; preds = %54, %52
  %55 = phi i64 [ 0, %52 ], [ %82, %54 ]
  %56 = phi i64 [ %53, %52 ], [ %83, %54 ]
  %57 = add i64 %55, %33
  %58 = add nsw i64 %57, 1
  %59 = getelementptr inbounds [100000 x i32], [100000 x i32]* %3, i64 0, i64 %58
  %60 = bitcast i32* %59 to <4 x i32>*
  %61 = load <4 x i32>, <4 x i32>* %60, align 4, !tbaa !5
  %62 = getelementptr inbounds i32, i32* %59, i64 4
  %63 = bitcast i32* %62 to <4 x i32>*
  %64 = load <4 x i32>, <4 x i32>* %63, align 4, !tbaa !5
  %65 = getelementptr inbounds [100000 x i32], [100000 x i32]* %3, i64 0, i64 %57
  %66 = bitcast i32* %65 to <4 x i32>*
  store <4 x i32> %61, <4 x i32>* %66, align 4, !tbaa !5
  %67 = getelementptr inbounds i32, i32* %65, i64 4
  %68 = bitcast i32* %67 to <4 x i32>*
  store <4 x i32> %64, <4 x i32>* %68, align 4, !tbaa !5
  %69 = or i64 %55, 8
  %70 = add i64 %69, %33
  %71 = add nsw i64 %70, 1
  %72 = getelementptr inbounds [100000 x i32], [100000 x i32]* %3, i64 0, i64 %71
  %73 = bitcast i32* %72 to <4 x i32>*
  %74 = load <4 x i32>, <4 x i32>* %73, align 4, !tbaa !5
  %75 = getelementptr inbounds i32, i32* %72, i64 4
  %76 = bitcast i32* %75 to <4 x i32>*
  %77 = load <4 x i32>, <4 x i32>* %76, align 4, !tbaa !5
  %78 = getelementptr inbounds [100000 x i32], [100000 x i32]* %3, i64 0, i64 %70
  %79 = bitcast i32* %78 to <4 x i32>*
  store <4 x i32> %74, <4 x i32>* %79, align 4, !tbaa !5
  %80 = getelementptr inbounds i32, i32* %78, i64 4
  %81 = bitcast i32* %80 to <4 x i32>*
  store <4 x i32> %77, <4 x i32>* %81, align 4, !tbaa !5
  %82 = add nuw i64 %55, 16
  %83 = add i64 %56, -2
  %84 = icmp eq i64 %83, 0
  br i1 %84, label %85, label %54, !llvm.loop !11

85:                                               ; preds = %54, %44
  %86 = phi i64 [ 0, %44 ], [ %82, %54 ]
  %87 = icmp eq i64 %50, 0
  br i1 %87, label %101, label %88

88:                                               ; preds = %85
  %89 = add i64 %86, %33
  %90 = add nsw i64 %89, 1
  %91 = getelementptr inbounds [100000 x i32], [100000 x i32]* %3, i64 0, i64 %90
  %92 = bitcast i32* %91 to <4 x i32>*
  %93 = load <4 x i32>, <4 x i32>* %92, align 4, !tbaa !5
  %94 = getelementptr inbounds i32, i32* %91, i64 4
  %95 = bitcast i32* %94 to <4 x i32>*
  %96 = load <4 x i32>, <4 x i32>* %95, align 4, !tbaa !5
  %97 = getelementptr inbounds [100000 x i32], [100000 x i32]* %3, i64 0, i64 %89
  %98 = bitcast i32* %97 to <4 x i32>*
  store <4 x i32> %93, <4 x i32>* %98, align 4, !tbaa !5
  %99 = getelementptr inbounds i32, i32* %97, i64 4
  %100 = bitcast i32* %99 to <4 x i32>*
  store <4 x i32> %96, <4 x i32>* %100, align 4, !tbaa !5
  br label %101

101:                                              ; preds = %85, %88
  %102 = icmp eq i64 %42, %45
  br i1 %102, label %114, label %103

103:                                              ; preds = %40, %101
  %104 = phi i64 [ %33, %40 ], [ %46, %101 ]
  br label %105

105:                                              ; preds = %103, %105
  %106 = phi i64 [ %107, %105 ], [ %104, %103 ]
  %107 = add nsw i64 %106, 1
  %108 = getelementptr inbounds [100000 x i32], [100000 x i32]* %3, i64 0, i64 %107
  %109 = load i32, i32* %108, align 4, !tbaa !5
  %110 = getelementptr inbounds [100000 x i32], [100000 x i32]* %3, i64 0, i64 %106
  store i32 %109, i32* %110, align 4, !tbaa !5
  %111 = icmp eq i64 %107, %41
  br i1 %111, label %114, label %105, !llvm.loop !13

112:                                              ; preds = %30
  %113 = add nsw i32 %32, 1
  br label %114

114:                                              ; preds = %105, %101, %37, %112
  %115 = phi i32 [ %31, %112 ], [ %38, %37 ], [ %38, %101 ], [ %38, %105 ]
  %116 = phi i32 [ %113, %112 ], [ %32, %37 ], [ %32, %101 ], [ %32, %105 ]
  %117 = icmp slt i32 %116, %115
  br i1 %117, label %30, label %24, !llvm.loop !15

118:                                              ; preds = %152, %26
  %119 = phi i64 [ %29, %26 ], [ %161, %152 ]
  %120 = getelementptr inbounds [100000 x i32], [100000 x i32]* %3, i64 0, i64 %119
  %121 = load i32, i32* %120, align 4, !tbaa !5
  %122 = call nonnull align 8 dereferenceable(8) %"class.std::basic_ostream"* @_ZNSolsEi(%"class.std::basic_ostream"* nonnull align 8 dereferenceable(8) @_ZSt4cout, i32 %121)
  %123 = bitcast %"class.std::basic_ostream"* %122 to i8**
  %124 = load i8*, i8** %123, align 8, !tbaa !16
  %125 = getelementptr i8, i8* %124, i64 -24
  %126 = bitcast i8* %125 to i64*
  %127 = load i64, i64* %126, align 8
  %128 = bitcast %"class.std::basic_ostream"* %122 to i8*
  %129 = add nsw i64 %127, 240
  %130 = getelementptr inbounds i8, i8* %128, i64 %129
  %131 = bitcast i8* %130 to %"class.std::ctype"**
  %132 = load %"class.std::ctype"*, %"class.std::ctype"** %131, align 8, !tbaa !18
  %133 = icmp eq %"class.std::ctype"* %132, null
  br i1 %133, label %134, label %135

134:                                              ; preds = %118
  call void @_ZSt16__throw_bad_castv() #8
  unreachable

135:                                              ; preds = %118
  %136 = getelementptr inbounds %"class.std::ctype", %"class.std::ctype"* %132, i64 0, i32 8
  %137 = load i8, i8* %136, align 8, !tbaa !22
  %138 = icmp eq i8 %137, 0
  br i1 %138, label %142, label %139

139:                                              ; preds = %135
  %140 = getelementptr inbounds %"class.std::ctype", %"class.std::ctype"* %132, i64 0, i32 9, i64 10
  %141 = load i8, i8* %140, align 1, !tbaa !24
  br label %148

142:                                              ; preds = %135
  call void @_ZNKSt5ctypeIcE13_M_widen_initEv(%"class.std::ctype"* nonnull align 8 dereferenceable(570) %132)
  %143 = bitcast %"class.std::ctype"* %132 to i8 (%"class.std::ctype"*, i8)***
  %144 = load i8 (%"class.std::ctype"*, i8)**, i8 (%"class.std::ctype"*, i8)*** %143, align 8, !tbaa !16
  %145 = getelementptr inbounds i8 (%"class.std::ctype"*, i8)*, i8 (%"class.std::ctype"*, i8)** %144, i64 6
  %146 = load i8 (%"class.std::ctype"*, i8)*, i8 (%"class.std::ctype"*, i8)** %145, align 8
  %147 = call signext i8 %146(%"class.std::ctype"* nonnull align 8 dereferenceable(570) %132, i8 signext 10)
  br label %148

148:                                              ; preds = %139, %142
  %149 = phi i8 [ %141, %139 ], [ %147, %142 ]
  %150 = call nonnull align 8 dereferenceable(8) %"class.std::basic_ostream"* @_ZNSo3putEc(%"class.std::basic_ostream"* nonnull align 8 dereferenceable(8) %122, i8 signext %149)
  %151 = call nonnull align 8 dereferenceable(8) %"class.std::basic_ostream"* @_ZNSo5flushEv(%"class.std::basic_ostream"* nonnull align 8 dereferenceable(8) %150)
  call void @llvm.lifetime.end.p0i8(i64 4, i8* nonnull %7) #7
  call void @llvm.lifetime.end.p0i8(i64 400000, i8* nonnull %6) #7
  call void @llvm.lifetime.end.p0i8(i64 4, i8* nonnull %5) #7
  ret i32 0

152:                                              ; preds = %24, %152
  %153 = phi i64 [ %158, %152 ], [ 0, %24 ]
  %154 = getelementptr inbounds [100000 x i32], [100000 x i32]* %3, i64 0, i64 %153
  %155 = load i32, i32* %154, align 4, !tbaa !5
  %156 = call nonnull align 8 dereferenceable(8) %"class.std::basic_ostream"* @_ZNSolsEi(%"class.std::basic_ostream"* nonnull align 8 dereferenceable(8) @_ZSt4cout, i32 %155)
  call void @llvm.lifetime.start.p0i8(i64 1, i8* nonnull %1)
  store i8 32, i8* %1, align 1, !tbaa !24
  %157 = call nonnull align 8 dereferenceable(8) %"class.std::basic_ostream"* @_ZSt16__ostream_insertIcSt11char_traitsIcEERSt13basic_ostreamIT_T0_ES6_PKS3_l(%"class.std::basic_ostream"* nonnull align 8 dereferenceable(8) %156, i8* nonnull %1, i64 1)
  call void @llvm.lifetime.end.p0i8(i64 1, i8* nonnull %1)
  %158 = add nuw nsw i64 %153, 1
  %159 = load i32, i32* %2, align 4, !tbaa !5
  %160 = add nsw i32 %159, -1
  %161 = sext i32 %160 to i64
  %162 = icmp slt i64 %158, %161
  br i1 %162, label %152, label %118, !llvm.loop !25
}

; Function Attrs: argmemonly mustprogress nofree nosync nounwind willreturn
declare void @llvm.lifetime.start.p0i8(i64 immarg, i8* nocapture) #4

declare nonnull align 8 dereferenceable(16) %"class.std::basic_istream"* @_ZNSirsERi(%"class.std::basic_istream"* nonnull align 8 dereferenceable(16), i32* nonnull align 4 dereferenceable(4)) local_unnamed_addr #0

; Function Attrs: argmemonly mustprogress nofree nosync nounwind willreturn
declare void @llvm.lifetime.end.p0i8(i64 immarg, i8* nocapture) #4

declare nonnull align 8 dereferenceable(8) %"class.std::basic_ostream"* @_ZNSolsEi(%"class.std::basic_ostream"* nonnull align 8 dereferenceable(8), i32) local_unnamed_addr #0

declare nonnull align 8 dereferenceable(8) %"class.std::basic_ostream"* @_ZSt16__ostream_insertIcSt11char_traitsIcEERSt13basic_ostreamIT_T0_ES6_PKS3_l(%"class.std::basic_ostream"* nonnull align 8 dereferenceable(8), i8*, i64) local_unnamed_addr #0

declare nonnull align 8 dereferenceable(8) %"class.std::basic_ostream"* @_ZNSo3putEc(%"class.std::basic_ostream"* nonnull align 8 dereferenceable(8), i8 signext) local_unnamed_addr #0

declare nonnull align 8 dereferenceable(8) %"class.std::basic_ostream"* @_ZNSo5flushEv(%"class.std::basic_ostream"* nonnull align 8 dereferenceable(8)) local_unnamed_addr #0

; Function Attrs: noreturn
declare void @_ZSt16__throw_bad_castv() local_unnamed_addr #5

declare void @_ZNKSt5ctypeIcE13_M_widen_initEv(%"class.std::ctype"* nonnull align 8 dereferenceable(570)) local_unnamed_addr #0

; Function Attrs: sspstrong uwtable
define internal void @_GLOBAL__sub_I_1870.cpp() #6 section ".text.startup" {
  tail call void @_ZNSt8ios_base4InitC1Ev(%"class.std::ios_base::Init"* nonnull align 1 dereferenceable(1) @_ZStL8__ioinit)
  %1 = tail call i32 @__cxa_atexit(void (i8*)* bitcast (void (%"class.std::ios_base::Init"*)* @_ZNSt8ios_base4InitD1Ev to void (i8*)*), i8* getelementptr inbounds (%"class.std::ios_base::Init", %"class.std::ios_base::Init"* @_ZStL8__ioinit, i64 0, i32 0), i8* nonnull @__dso_handle) #7
  ret void
}


!llvm.module.flags = !{!0, !1, !2, !3}
!llvm.ident = !{!4}

!0 = !{i32 1, !"wchar_size", i32 4}
!1 = !{i32 7, !"PIC Level", i32 2}
!2 = !{i32 7, !"PIE Level", i32 2}
!3 = !{i32 7, !"uwtable", i32 1}
!4 = !{!"clang version 13.0.0"}
!5 = !{!6, !6, i64 0}
!6 = !{!"int", !7, i64 0}
!7 = !{!"omnipotent char", !8, i64 0}
!8 = !{!"Simple C++ TBAA"}
!9 = distinct !{!9, !10}
!10 = !{!"llvm.loop.mustprogress"}
!11 = distinct !{!11, !10, !12}
!12 = !{!"llvm.loop.isvectorized", i32 1}
!13 = distinct !{!13, !10, !14, !12}
!14 = !{!"llvm.loop.unroll.runtime.disable"}
!15 = distinct !{!15, !10}
!16 = !{!17, !17, i64 0}
!17 = !{!"vtable pointer", !8, i64 0}
!18 = !{!19, !20, i64 240}
!19 = !{!"_ZTSSt9basic_iosIcSt11char_traitsIcEE", !20, i64 216, !7, i64 224, !21, i64 225, !20, i64 232, !20, i64 240, !20, i64 248, !20, i64 256}
!20 = !{!"any pointer", !7, i64 0}
!21 = !{!"bool", !7, i64 0}
!22 = !{!23, !7, i64 56}
!23 = !{!"_ZTSSt5ctypeIcE", !20, i64 16, !21, i64 24, !20, i64 32, !20, i64 40, !20, i64 48, !7, i64 56, !7, i64 57, !7, i64 313, !7, i64 569}
!24 = !{!7, !7, i64 0}
!25 = distinct !{!25, !10}
